libre2.so.9 libre2-9 #MINVER#
* Build-Depends-Package: libre2-dev
 _ZN3re211FilteredRE214PrintPrefilterEi@Base 20131024+dfsg
 _ZN3re211FilteredRE219RegexpsGivenStringsERKSt6vectorIiSaIiEEPS3_@Base 20131024+dfsg
 _ZN3re211FilteredRE23AddERKNS_11StringPieceERKNS_3RE27OptionsEPi@Base 20131024+dfsg
 _ZN3re211FilteredRE27CompileEPSt6vectorINSt7__cxx1112basic_stringIcSt11char_traitsIcESaIcEEESaIS7_EE@Base 20150701+dfsg
 _ZN3re211FilteredRE2C1EOS0_@Base 20200801+dfsg
 _ZN3re211FilteredRE2C1Ei@Base 20161101+dfsg
 _ZN3re211FilteredRE2C1Ev@Base 20131024+dfsg
 _ZN3re211FilteredRE2C2EOS0_@Base 20200801+dfsg
 _ZN3re211FilteredRE2C2Ei@Base 20161101+dfsg
 _ZN3re211FilteredRE2C2Ev@Base 20131024+dfsg
 _ZN3re211FilteredRE2D1Ev@Base 20131024+dfsg
 _ZN3re211FilteredRE2D2Ev@Base 20131024+dfsg
 _ZN3re211FilteredRE2aSEOS0_@Base 20200801+dfsg
 _ZN3re211StringPiece4nposE@Base 0+hg23
 _ZN3re212re2_internal5ParseINS_11StringPieceEEEbPKcjPT_@Base 20201101+dfsg
 _ZN3re212re2_internal5ParseINSt7__cxx1112basic_stringIcSt11char_traitsIcESaIcEEEEEbPKcjPT_@Base 20201101+dfsg
 _ZN3re212re2_internal5ParseIaEEbPKcjPT_@Base 20201101+dfsg
 _ZN3re212re2_internal5ParseIcEEbPKcjPT_@Base 20201101+dfsg
 _ZN3re212re2_internal5ParseIdEEbPKcjPT_@Base 20201101+dfsg
 _ZN3re212re2_internal5ParseIfEEbPKcjPT_@Base 20201101+dfsg
 _ZN3re212re2_internal5ParseIhEEbPKcjPT_@Base 20201101+dfsg
 _ZN3re212re2_internal5ParseIiEEbPKcjPT_i@Base 20201101+dfsg
 _ZN3re212re2_internal5ParseIjEEbPKcjPT_i@Base 20201101+dfsg
 _ZN3re212re2_internal5ParseIlEEbPKcjPT_i@Base 20201101+dfsg
 _ZN3re212re2_internal5ParseImEEbPKcjPT_i@Base 20201101+dfsg
 _ZN3re212re2_internal5ParseIsEEbPKcjPT_i@Base 20201101+dfsg
 _ZN3re212re2_internal5ParseItEEbPKcjPT_i@Base 20201101+dfsg
 _ZN3re212re2_internal5ParseIvEEbPKcjPT_@Base 20201101+dfsg
 _ZN3re212re2_internal5ParseIxEEbPKcjPT_i@Base 20201101+dfsg
 _ZN3re212re2_internal5ParseIyEEbPKcjPT_i@Base 20201101+dfsg
 _ZN3re23RE210FullMatchNERKNS_11StringPieceERKS0_PKPKNS0_3ArgEi@Base 0+hg23
 _ZN3re23RE211MaxSubmatchERKNS_11StringPieceE@Base 20131024+dfsg
 _ZN3re23RE213GlobalReplaceEPNSt7__cxx1112basic_stringIcSt11char_traitsIcESaIcEEERKS0_RKNS_11StringPieceE@Base 20150701+dfsg
 _ZN3re23RE213PartialMatchNERKNS_11StringPieceERKS0_PKPKNS0_3ArgEi@Base 0+hg23
 _ZN3re23RE215FindAndConsumeNEPNS_11StringPieceERKS0_PKPKNS0_3ArgEi@Base 0+hg23
 _ZN3re23RE23Set3AddERKNS_11StringPieceEPNSt7__cxx1112basic_stringIcSt11char_traitsIcESaIcEEE@Base 20150701+dfsg
 _ZN3re23RE23Set7CompileEv@Base 20131024+dfsg
 _ZN3re23RE23SetC1EOS1_@Base 20200801+dfsg
 _ZN3re23RE23SetC1ERKNS0_7OptionsENS0_6AnchorE@Base 20131024+dfsg
 _ZN3re23RE23SetC2EOS1_@Base 20200801+dfsg
 _ZN3re23RE23SetC2ERKNS0_7OptionsENS0_6AnchorE@Base 20131024+dfsg
 _ZN3re23RE23SetD1Ev@Base 20131024+dfsg
 _ZN3re23RE23SetD2Ev@Base 20131024+dfsg
 _ZN3re23RE23SetaSEOS1_@Base 20200801+dfsg
 _ZN3re23RE24InitERKNS_11StringPieceERKNS0_7OptionsE@Base 0+hg23
 _ZN3re23RE27ExtractERKNS_11StringPieceERKS0_S3_PNSt7__cxx1112basic_stringIcSt11char_traitsIcESaIcEEE@Base 20150701+dfsg
 _ZN3re23RE27Options14kDefaultMaxMemE@Base 0+hg23
 _ZN3re23RE27OptionsC1ENS0_13CannedOptionsE@Base 20131024+dfsg
 _ZN3re23RE27OptionsC2ENS0_13CannedOptionsE@Base 20131024+dfsg
 _ZN3re23RE27ReplaceEPNSt7__cxx1112basic_stringIcSt11char_traitsIcESaIcEEERKS0_RKNS_11StringPieceE@Base 20150701+dfsg
 _ZN3re23RE28ConsumeNEPNS_11StringPieceERKS0_PKPKNS0_3ArgEi@Base 0+hg23
 _ZN3re23RE29QuoteMetaB5cxx11ERKNS_11StringPieceE@Base 20150701+dfsg
 _ZN3re23RE2C1EPKc@Base 0+hg23
 _ZN3re23RE2C1ERKNS_11StringPieceE@Base 0+hg23
 _ZN3re23RE2C1ERKNS_11StringPieceERKNS0_7OptionsE@Base 0+hg23
 _ZN3re23RE2C1ERKNSt7__cxx1112basic_stringIcSt11char_traitsIcESaIcEEE@Base 20150701+dfsg
 _ZN3re23RE2C2EPKc@Base 0+hg23
 _ZN3re23RE2C2ERKNS_11StringPieceE@Base 0+hg23
 _ZN3re23RE2C2ERKNS_11StringPieceERKNS0_7OptionsE@Base 0+hg23
 _ZN3re23RE2C2ERKNSt7__cxx1112basic_stringIcSt11char_traitsIcESaIcEEE@Base 20150701+dfsg
 _ZN3re23RE2D1Ev@Base 0+hg23
 _ZN3re23RE2D2Ev@Base 0+hg23
 _ZN3re2lsERSoRKNS_11StringPieceE@Base 20180701+dfsg
 _ZNK3re211FilteredRE210AllMatchesERKNS_11StringPieceERKSt6vectorIiSaIiEEPS6_@Base 20131024+dfsg
 _ZNK3re211FilteredRE210FirstMatchERKNS_11StringPieceERKSt6vectorIiSaIiEE@Base 20131024+dfsg
 _ZNK3re211FilteredRE213AllPotentialsERKSt6vectorIiSaIiEEPS3_@Base 20150701+dfsg
 _ZNK3re211FilteredRE214SlowFirstMatchERKNS_11StringPieceE@Base 20131024+dfsg
 _ZNK3re211StringPiece4copyEPcjj@Base 0+hg23
 _ZNK3re211StringPiece4findERKS0_j@Base 0+hg23
 _ZNK3re211StringPiece4findEcj@Base 0+hg23
 _ZNK3re211StringPiece5rfindERKS0_j@Base 0+hg23
 _ZNK3re211StringPiece5rfindEcj@Base 0+hg23
 _ZNK3re211StringPiece6substrEjj@Base 0+hg23
 _ZNK3re23RE211ProgramSizeEv@Base 0+hg23
 _ZNK3re23RE211ReverseProgEv@Base 0+hg23
 _ZNK3re23RE213ProgramFanoutEPSt6vectorIiSaIiEE@Base 20200501+dfsg
 _ZNK3re23RE218CheckRewriteStringERKNS_11StringPieceEPNSt7__cxx1112basic_stringIcSt11char_traitsIcESaIcEEE@Base 20150701+dfsg
 _ZNK3re23RE218PossibleMatchRangeEPNSt7__cxx1112basic_stringIcSt11char_traitsIcESaIcEEES7_i@Base 20150701+dfsg
 _ZNK3re23RE218ReverseProgramSizeEv@Base 20181101+dfsg
 _ZNK3re23RE219CapturingGroupNamesB5cxx11Ev@Base 20150701+dfsg
 _ZNK3re23RE220NamedCapturingGroupsB5cxx11Ev@Base 20150701+dfsg
 _ZNK3re23RE220ReverseProgramFanoutEPSt6vectorIiSaIiEE@Base 20200501+dfsg
 _ZNK3re23RE23Set5MatchERKNS_11StringPieceEPSt6vectorIiSaIiEE@Base 20131024+dfsg
 _ZNK3re23RE23Set5MatchERKNS_11StringPieceEPSt6vectorIiSaIiEEPNS1_9ErrorInfoE@Base 20180201+dfsg
 _ZNK3re23RE25MatchERKNS_11StringPieceEjjNS0_6AnchorEPS1_i@Base 20160901
 _ZNK3re23RE27DoMatchERKNS_11StringPieceENS0_6AnchorEPjPKPKNS0_3ArgEi@Base 20160901
 _ZNK3re23RE27Options10ParseFlagsEv@Base 20131024+dfsg
 _ZNK3re23RE27RewriteEPNSt7__cxx1112basic_stringIcSt11char_traitsIcESaIcEEERKNS_11StringPieceEPS9_i@Base 20150701+dfsg
